; ModuleID = '36/229.c'
source_filename = "36/229.c"
target datalayout = "e-m:e-p270:32:32-p271:32:32-p272:64:64-i64:64-f80:128-n8:16:32:64-S128"
target triple = "x86_64-pc-linux-gnu"

@.str = private unnamed_addr constant [5 x i8] c"%s%s\00", align 1
@a = common dso_local global [100 x i8] zeroinitializer, align 16
@b = common dso_local global [100 x i8] zeroinitializer, align 16
@l = common dso_local global i32 0, align 4
@.str.1 = private unnamed_addr constant [5 x i8] c"YES\0A\00", align 1
@.str.2 = private unnamed_addr constant [4 x i8] c"NO\0A\00", align 1

; Function Attrs: noinline nounwind uwtable
define dso_local i32 @main(i32 %0, i8** %1) #0 {
  %3 = alloca i32, align 4
  %4 = alloca i32, align 4
  %5 = alloca i8**, align 8
  %6 = alloca i32, align 4
  %7 = alloca i32, align 4
  store i32 0, i32* %3, align 4
  store i32 %0, i32* %4, align 4
  store i8** %1, i8*** %5, align 8
  store i32 1, i32* %7, align 4
  %8 = call i32 (i8*, ...) @__isoc99_scanf(i8* getelementptr inbounds ([5 x i8], [5 x i8]* @.str, i64 0, i64 0), i8* getelementptr inbounds ([100 x i8], [100 x i8]* @a, i64 0, i64 0), i8* getelementptr inbounds ([100 x i8], [100 x i8]* @b, i64 0, i64 0))
  %9 = call i64 @strlen(i8* getelementptr inbounds ([100 x i8], [100 x i8]* @b, i64 0, i64 0)) #3
  %10 = trunc i64 %9 to i32
  store i32 %10, i32* @l, align 4
  store i32 0, i32* %6, align 4
  br label %11

11:                                               ; preds = %22, %2
  %12 = load i32, i32* %6, align 4
  %13 = sext i32 %12 to i64
  %14 = call i64 @strlen(i8* getelementptr inbounds ([100 x i8], [100 x i8]* @a, i64 0, i64 0)) #3
  %15 = icmp ult i64 %13, %14
  br i1 %15, label %16, label %25

16:                                               ; preds = %11
  %17 = load i32, i32* %6, align 4
  %18 = call i32 @p(i32 %17)
  %19 = icmp eq i32 %18, 0
  br i1 %19, label %20, label %21

20:                                               ; preds = %16
  store i32 0, i32* %7, align 4
  br label %25

21:                                               ; preds = %16
  br label %22

22:                                               ; preds = %21
  %23 = load i32, i32* %6, align 4
  %24 = add nsw i32 %23, 1
  store i32 %24, i32* %6, align 4
  br label %11

25:                                               ; preds = %20, %11
  store i32 0, i32* %6, align 4
  br label %26

26:                                               ; preds = %39, %25
  %27 = load i32, i32* %6, align 4
  %28 = load i32, i32* @l, align 4
  %29 = icmp slt i32 %27, %28
  br i1 %29, label %30, label %42

30:                                               ; preds = %26
  %31 = load i32, i32* %6, align 4
  %32 = sext i32 %31 to i64
  %33 = getelementptr inbounds [100 x i8], [100 x i8]* @b, i64 0, i64 %32
  %34 = load i8, i8* %33, align 1
  %35 = sext i8 %34 to i32
  %36 = icmp ne i32 %35, 0
  br i1 %36, label %37, label %38

37:                                               ; preds = %30
  store i32 0, i32* %7, align 4
  br label %42

38:                                               ; preds = %30
  br label %39

39:                                               ; preds = %38
  %40 = load i32, i32* %6, align 4
  %41 = add nsw i32 %40, 1
  store i32 %41, i32* %6, align 4
  br label %26

42:                                               ; preds = %37, %26
  %43 = load i32, i32* %7, align 4
  %44 = icmp eq i32 %43, 1
  br i1 %44, label %45, label %47

45:                                               ; preds = %42
  %46 = call i32 (i8*, ...) @printf(i8* getelementptr inbounds ([5 x i8], [5 x i8]* @.str.1, i64 0, i64 0))
  br label %49

47:                                               ; preds = %42
  %48 = call i32 (i8*, ...) @printf(i8* getelementptr inbounds ([4 x i8], [4 x i8]* @.str.2, i64 0, i64 0))
  br label %49

49:                                               ; preds = %47, %45
  ret i32 0
}

declare dso_local i32 @__isoc99_scanf(i8*, ...) #1

; Function Attrs: nounwind readonly
declare dso_local i64 @strlen(i8*) #2

; Function Attrs: noinline nounwind uwtable
define dso_local i32 @p(i32 %0) #0 {
  %2 = alloca i32, align 4
  %3 = alloca i32, align 4
  %4 = alloca i32, align 4
  %5 = alloca i32, align 4
  store i32 %0, i32* %3, align 4
  store i32 0, i32* %5, align 4
  store i32 0, i32* %4, align 4
  br label %6

6:                                                ; preds = %27, %1
  %7 = load i32, i32* %4, align 4
  %8 = load i32, i32* @l, align 4
  %9 = icmp slt i32 %7, %8
  br i1 %9, label %10, label %30

10:                                               ; preds = %6
  %11 = load i32, i32* %3, align 4
  %12 = sext i32 %11 to i64
  %13 = getelementptr inbounds [100 x i8], [100 x i8]* @a, i64 0, i64 %12
  %14 = load i8, i8* %13, align 1
  %15 = sext i8 %14 to i32
  %16 = load i32, i32* %4, align 4
  %17 = sext i32 %16 to i64
  %18 = getelementptr inbounds [100 x i8], [100 x i8]* @b, i64 0, i64 %17
  %19 = load i8, i8* %18, align 1
  %20 = sext i8 %19 to i32
  %21 = icmp eq i32 %15, %20
  br i1 %21, label %22, label %26

22:                                               ; preds = %10
  store i32 1, i32* %5, align 4
  %23 = load i32, i32* %4, align 4
  %24 = sext i32 %23 to i64
  %25 = getelementptr inbounds [100 x i8], [100 x i8]* @b, i64 0, i64 %24
  store i8 0, i8* %25, align 1
  br label %30

26:                                               ; preds = %10
  br label %27

27:                                               ; preds = %26
  %28 = load i32, i32* %4, align 4
  %29 = add nsw i32 %28, 1
  store i32 %29, i32* %4, align 4
  br label %6

30:                                               ; preds = %22, %6
  %31 = load i32, i32* %5, align 4
  %32 = icmp eq i32 %31, 0
  br i1 %32, label %33, label %34

33:                                               ; preds = %30
  store i32 0, i32* %2, align 4
  br label %35

34:                                               ; preds = %30
  store i32 1, i32* %2, align 4
  br label %35

35:                                               ; preds = %34, %33
  %36 = load i32, i32* %2, align 4
  ret i32 %36
}

declare dso_local i32 @printf(i8*, ...) #1


!llvm.module.flags = !{!0}
!llvm.ident = !{!1}

!0 = !{i32 1, !"wchar_size", i32 4}
!1 = !{!"clang version 10.0.0-4ubuntu1 "}
